; Function Attrs: nounwind uwtable
define void @prte_iof_base_output(ptr noundef %0, i16 noundef zeroext %1, ptr noundef %2) local_unnamed_addr #0 {
  %4 = load i64, ptr getelementptr inbounds nuw (i8, ptr @prte_iof_deliver_t_class, i64 56), align 8, !tbaa !10
  %5 = tail call noalias noundef ptr @malloc(i64 noundef %4) #13
  %6 = load i32, ptr @pmix_class_init_epoch, align 4, !tbaa !3
  %7 = load i32, ptr getelementptr inbounds nuw (i8, ptr @prte_iof_deliver_t_class, i64 32), align 8, !tbaa !15
  %.not.i = icmp eq i32 %6, %7
  br i1 %.not.i, label %9, label %8

8:                                                ; preds = %3
  tail call void @pmix_class_initialize(ptr noundef nonnull @prte_iof_deliver_t_class) #12
  br label %9

9:                                                ; preds = %8, %3
  %.not22.i = icmp eq ptr %5, null
  br i1 %.not22.i, label %pmix_obj_new_tma.exit, label %10

10:                                               ; preds = %9
  %11 = tail call i32 @pthread_mutex_init(ptr noundef nonnull %5, ptr noundef null) #12
  %12 = getelementptr inbounds nuw i8, ptr %5, i64 40
  store ptr @prte_iof_deliver_t_class, ptr %12, align 8, !tbaa !16
  %13 = getelementptr inbounds nuw i8, ptr %5, i64 48
  store i32 1, ptr %13, align 8, !tbaa !19
  %14 = getelementptr inbounds nuw i8, ptr %5, i64 56
  %15 = getelementptr inbounds nuw i8, ptr %5, i64 96
  tail call void @llvm.memset.p0.i64(ptr noundef nonnull align 8 dereferenceable(32) %14, i8 0, i64 32, i1 false)
  tail call void @llvm.memset.p0.i64(ptr noundef nonnull align 8 dereferenceable(24) %15, i8 0, i64 24, i1 false)
  %16 = load ptr, ptr getelementptr inbounds nuw (i8, ptr @prte_iof_deliver_t_class, i64 40), align 8, !tbaa !20
  %17 = load ptr, ptr %16, align 8, !tbaa !21
  %.not6.i.i = icmp eq ptr %17, null
  br i1 %.not6.i.i, label %pmix_obj_new_tma.exit, label %.lr.ph.i.i

.lr.ph.i.i:                                       ; preds = %10, %.lr.ph.i.i
  %18 = phi ptr [ %20, %.lr.ph.i.i ], [ %17, %10 ]
  %.07.i.i = phi ptr [ %19, %.lr.ph.i.i ], [ %16, %10 ]
  tail call void %18(ptr noundef nonnull %5) #12
  %19 = getelementptr inbounds nuw i8, ptr %.07.i.i, i64 8
  %20 = load ptr, ptr %19, align 8, !tbaa !21
  %.not.i.i = icmp eq ptr %20, null
  br i1 %.not.i.i, label %pmix_obj_new_tma.exit, label %.lr.ph.i.i, !llvm.loop !22

pmix_obj_new_tma.exit:                            ; preds = %.lr.ph.i.i, %9, %10
  %21 = getelementptr inbounds nuw i8, ptr %5, i64 120
  tail call void @PMIx_Xfer_procid(ptr noundef nonnull %21, ptr noundef %0) #12
  %22 = getelementptr inbounds nuw i8, ptr %5, i64 384
  store ptr %2, ptr %22, align 8, !tbaa !24
  %23 = tail call i64 @strlen(ptr noundef nonnull dereferenceable(1) %2) #14
  %24 = getelementptr inbounds nuw i8, ptr %5, i64 392
  store i64 %23, ptr %24, align 8, !tbaa !28
  %25 = tail call i32 @PMIx_server_IOF_deliver(ptr noundef nonnull %21, i16 noundef zeroext %1, ptr noundef nonnull %22, ptr noundef null, i64 noundef 0, ptr noundef nonnull @lkcbfunc, ptr noundef %5) #12
  switch i32 %25, label %26 [
    i32 0, label %52
    i32 -2, label %28
  ]

26:                                               ; preds = %pmix_obj_new_tma.exit
  %27 = tail call ptr @PMIx_Error_string(i32 noundef %25) #12
  tail call void (i32, ptr, ...) @pmix_output(i32 noundef 0, ptr noundef nonnull @.str.3, ptr noundef %27, ptr noundef nonnull @.str.4, i32 noundef 130) #12
  br label %28

28:                                               ; preds = %pmix_obj_new_tma.exit, %26
  %29 = tail call i32 @pthread_mutex_lock(ptr noundef nonnull %5) #12
  %30 = icmp eq i32 %29, 35
  br i1 %30, label %31, label %pmix_obj_update.exit

31:                                               ; preds = %28
  %32 = tail call ptr @__errno_location() #15
  store i32 35, ptr %32, align 4, !tbaa !3
  tail call void @perror(ptr noundef nonnull @.str.14) #16
  tail call void @abort() #17
  unreachable

pmix_obj_update.exit:                             ; preds = %28
  %33 = getelementptr inbounds nuw i8, ptr %5, i64 48
  %34 = load i32, ptr %33, align 8, !tbaa !19
  %35 = add nsw i32 %34, -1
  store i32 %35, ptr %33, align 8, !tbaa !19
  %36 = tail call i32 @pthread_mutex_unlock(ptr noundef nonnull %5) #12
  %37 = icmp eq i32 %35, 0
  br i1 %37, label %38, label %52

38:                                               ; preds = %pmix_obj_update.exit
  %39 = getelementptr inbounds nuw i8, ptr %5, i64 40
  %40 = load ptr, ptr %39, align 8, !tbaa !16
  %41 = getelementptr inbounds nuw i8, ptr %40, i64 48
  %42 = load ptr, ptr %41, align 8, !tbaa !29
  %43 = load ptr, ptr %42, align 8, !tbaa !21
  %.not6.i = icmp eq ptr %43, null
  br i1 %.not6.i, label %pmix_obj_run_destructors.exit, label %.lr.ph.i

.lr.ph.i:                                         ; preds = %38, %.lr.ph.i
  %44 = phi ptr [ %46, %.lr.ph.i ], [ %43, %38 ]
  %.07.i = phi ptr [ %45, %.lr.ph.i ], [ %42, %38 ]
  tail call void %44(ptr noundef nonnull %5) #12
  %45 = getelementptr inbounds nuw i8, ptr %.07.i, i64 8
  %46 = load ptr, ptr %45, align 8, !tbaa !21
  %.not.i21 = icmp eq ptr %46, null
  br i1 %.not.i21, label %pmix_obj_run_destructors.exit, label %.lr.ph.i, !llvm.loop !30

pmix_obj_run_destructors.exit:                    ; preds = %.lr.ph.i, %38
  %47 = getelementptr inbounds nuw i8, ptr %5, i64 96
  %48 = load ptr, ptr %47, align 8, !tbaa !31
  %.not20 = icmp eq ptr %48, null
  br i1 %.not20, label %51, label %49

49:                                               ; preds = %pmix_obj_run_destructors.exit
  %50 = getelementptr inbounds nuw i8, ptr %5, i64 56
  tail call void %48(ptr noundef nonnull %50, ptr noundef nonnull %5) #12
  br label %52

51:                                               ; preds = %pmix_obj_run_destructors.exit
  tail call void @free(ptr noundef nonnull %5) #12
  br label %52

52:                                               ; preds = %pmix_obj_update.exit, %51, %49, %pmix_obj_new_tma.exit
  ret void
}